target datalayout = "e-m:e-p270:32:32-p271:32:32-p272:64:64-i64:64-i128:128-f80:128-n8:16:32:64-S128"
target triple = "x86_64-pc-linux-gnu"

%struct._zend_compiler_globals = type { %struct._zend_stack, ptr, ptr, i32, ptr, ptr, ptr, ptr, i8, i8, i8, i8, i8, %struct._zend_llist, ptr, i8, i8, i8, i8, ptr, i32, i32, %struct._zend_oparray_context, %struct._zend_file_context, ptr, %struct._zend_array, ptr, i64, i8, i8, i8, ptr, ptr, %struct._zend_stack, ptr, i32, ptr, ptr, i64, i64, ptr, ptr, ptr, ptr, i32, %struct._zend_stack }
%struct._zend_llist = type { ptr, ptr, i64, i64, ptr, i8, ptr }
%struct._zend_oparray_context = type { i32, i32, i32, i32, i32, i32, i32, ptr, ptr, i8 }
%struct._zend_file_context = type { %struct._zend_declarables, ptr, i8, i8, ptr, ptr, ptr, %struct._zend_array }
%struct._zend_declarables = type { i64 }
%struct._zend_array = type { %struct._zend_refcounted_h, %union.anon.0, i32, %union.anon.1, i32, i32, i32, i32, i64, ptr }
%struct._zend_refcounted_h = type { i32, %union.anon }
%union.anon = type { i32 }
%union.anon.0 = type { i32 }
%union.anon.1 = type { ptr }
%struct._zend_stack = type { i32, i32, i32, ptr }
%struct._zend_executor_globals = type { %struct._zval_struct, %struct._zval_struct, [32 x ptr], ptr, ptr, %struct._zend_array, %struct._zend_array, ptr, i32, i32, ptr, ptr, ptr, ptr, ptr, ptr, i64, ptr, ptr, i32, i32, i64, i32, i32, i32, i8, i8, %struct.zend_atomic_bool_s, %struct.zend_atomic_bool_s, ptr, i64, ptr, ptr, %struct._zend_array, %struct._zend_array, i32, i8, %struct._zval_struct, %struct._zval_struct, %struct._zend_stack, %struct._zend_stack, %struct._zend_stack, ptr, i32, i32, i64, ptr, ptr, ptr, %struct._zend_objects_store, ptr, ptr, ptr, [3 x %struct._zend_op], ptr, i8, i8, i64, i32, i32, ptr, [16 x %struct._HashTableIterator], ptr, %union._zend_function, %struct._zend_op, %struct._zend_array, i64, %struct.zend_get_gc_buffer, ptr, ptr, ptr, i64, i8, i32, ptr, ptr, i64, %struct._zend_call_stack, i64, i64, [6 x ptr] }
%struct.zend_atomic_bool_s = type { i8 }
%struct._zval_struct = type { %union._zend_value, %union.anon.3, %union.anon.6 }
%union._zend_value = type { i64 }
%union.anon.3 = type { i32 }
%union.anon.6 = type { i32 }
%struct._zend_objects_store = type { ptr, i32, i32, i32 }
%struct._HashTableIterator = type { ptr, i32, i32 }
%union._zend_function = type { %struct._zend_op_array }
%struct._zend_op_array = type { i8, [3 x i8], i32, ptr, ptr, ptr, i32, i32, ptr, ptr, ptr, ptr, i32, i32, i32, i32, ptr, ptr, ptr, ptr, ptr, i32, i32, ptr, ptr, ptr, i32, i32, i32, i32, ptr, ptr, [6 x ptr] }
%struct._zend_op = type { ptr, %union._znode_op, %union._znode_op, %union._znode_op, i32, i32, i8, i8, i8, i8 }
%union._znode_op = type { i32 }
%struct.zend_get_gc_buffer = type { ptr, ptr, ptr }
%struct._zend_call_stack = type { ptr, i64 }
%struct._zend_string = type { %struct._zend_refcounted_h, i64, i64, [1 x i8] }
%struct._zend_class_entry = type { i8, ptr, %union.anon.8, i32, i32, i32, i32, ptr, ptr, ptr, %struct._zend_array, %struct._zend_array, %struct._zend_array, ptr, ptr, ptr, ptr, ptr, ptr, ptr, ptr, ptr, ptr, ptr, ptr, ptr, ptr, ptr, ptr, ptr, ptr, ptr, %union.anon.9, ptr, ptr, ptr, ptr, i32, i32, %union.anon.10, ptr, ptr, ptr, ptr, i32, ptr, ptr, %union.anon.11 }
%union.anon.8 = type { ptr }
%union.anon.9 = type { ptr }
%union.anon.10 = type { ptr }
%union.anon.11 = type { %struct.anon.12 }
%struct.anon.12 = type { ptr, i32, i32 }

@compiler_globals = global %struct._zend_compiler_globals zeroinitializer, align 8
@executor_globals = global %struct._zend_executor_globals zeroinitializer, align 8
@.str.17 = private unnamed_addr constant [57 x i8] c"Cannot declare %s %s, because the name is already in use\00", align 1
@zend_observer_class_linked_observed = external global i8, align 1

; Function Attrs: nounwind uwtable
define internal void @zend_observer_class_linked_notify(ptr noundef %0, ptr noundef %1) #0 {
  %3 = alloca ptr, align 8
  %4 = alloca ptr, align 8
  store ptr %0, ptr %3, align 8
  store ptr %1, ptr %4, align 8
  %5 = load i8, ptr @zend_observer_class_linked_observed, align 1
  %6 = trunc i8 %5 to i1
  %7 = xor i1 %6, true
  %8 = xor i1 %7, true
  %9 = zext i1 %8 to i32
  %10 = sext i32 %9 to i64
  %11 = icmp ne i64 %10, 0
  br i1 %11, label %12, label %15

12:                                               ; preds = %2
  %13 = load ptr, ptr %3, align 8
  %14 = load ptr, ptr %4, align 8
  call void @_zend_observer_class_linked_notify(ptr noundef %13, ptr noundef %14)
  br label %15

15:                                               ; preds = %12, %2
  ret void
}

; Function Attrs: nounwind uwtable
define ptr @zend_bind_class_in_slot(ptr noundef %0, ptr noundef %1, ptr noundef %2) #0 {
  %4 = alloca ptr, align 8
  %5 = alloca ptr, align 8
  %6 = alloca ptr, align 8
  %7 = alloca ptr, align 8
  %8 = alloca ptr, align 8
  %9 = alloca %struct._zval_struct, align 8
  %10 = alloca ptr, align 8
  %11 = alloca ptr, align 8
  %12 = alloca ptr, align 8
  %13 = alloca ptr, align 8
  %14 = alloca ptr, align 8
  %15 = alloca ptr, align 8
  %16 = alloca i8, align 1
  %17 = alloca i8, align 1
  %18 = alloca ptr, align 8
  store ptr %0, ptr %12, align 8
  store ptr %1, ptr %13, align 8
  store ptr %2, ptr %14, align 8
  %19 = load ptr, ptr %12, align 8
  %20 = getelementptr inbounds %struct._zval_struct, ptr %19, i32 0, i32 0
  %21 = load ptr, ptr %20, align 8
  store ptr %21, ptr %15, align 8
  %22 = load ptr, ptr %15, align 8
  %23 = getelementptr inbounds %struct._zend_class_entry, ptr %22, i32 0, i32 4
  %24 = load i32, ptr %23, align 4
  %25 = and i32 %24, 1024
  %26 = icmp ne i32 %25, 0
  br i1 %26, label %27, label %32

27:                                               ; preds = %3
  %28 = load i32, ptr getelementptr inbounds (%struct._zend_compiler_globals, ptr @compiler_globals, i32 0, i32 21), align 4
  %29 = and i32 %28, 32768
  %30 = icmp ne i32 %29, 0
  %31 = xor i1 %30, true
  br label %32

32:                                               ; preds = %27, %3
  %33 = phi i1 [ false, %3 ], [ %31, %27 ]
  %34 = zext i1 %33 to i8
  store i8 %34, ptr %16, align 1
  %35 = load i8, ptr %16, align 1
  %36 = trunc i8 %35 to i1
  %37 = xor i1 %36, true
  %38 = xor i1 %37, true
  %39 = xor i1 %38, true
  %40 = zext i1 %39 to i32
  %41 = sext i32 %40 to i64
  %42 = icmp ne i64 %41, 0
  br i1 %42, label %43, label %52

43:                                               ; preds = %32
  %44 = load ptr, ptr getelementptr inbounds (%struct._zend_executor_globals, ptr @executor_globals, i32 0, i32 11), align 8
  %45 = load ptr, ptr %12, align 8
  %46 = load ptr, ptr %13, align 8
  %47 = getelementptr inbounds %struct._zval_struct, ptr %46, i32 0, i32 0
  %48 = load ptr, ptr %47, align 8
  %49 = call ptr @zend_hash_set_bucket_key(ptr noundef %44, ptr noundef %45, ptr noundef %48)
  %50 = icmp ne ptr %49, null
  %51 = zext i1 %50 to i8
  store i8 %51, ptr %17, align 1
  br label %76

52:                                               ; preds = %32
  %53 = load ptr, ptr getelementptr inbounds (%struct._zend_executor_globals, ptr @executor_globals, i32 0, i32 11), align 8
  %54 = load ptr, ptr %13, align 8
  %55 = getelementptr inbounds %struct._zval_struct, ptr %54, i32 0, i32 0
  %56 = load ptr, ptr %55, align 8
  %57 = load ptr, ptr %15, align 8
  store ptr %53, ptr %6, align 8
  store ptr %56, ptr %7, align 8
  store ptr %57, ptr %8, align 8
  %58 = load ptr, ptr %8, align 8
  store ptr %58, ptr %9, align 8
  %59 = getelementptr inbounds %struct._zval_struct, ptr %9, i32 0, i32 1
  store i32 13, ptr %59, align 8
  %60 = load ptr, ptr %6, align 8
  %61 = load ptr, ptr %7, align 8
  %62 = call ptr @zend_hash_add(ptr noundef %60, ptr noundef %61, ptr noundef %9) #15
  store ptr %62, ptr %10, align 8
  %63 = load ptr, ptr %10, align 8
  %64 = icmp ne ptr %63, null
  br i1 %64, label %65, label %71

65:                                               ; preds = %52
  %66 = load ptr, ptr %10, align 8
  %67 = load ptr, ptr %66, align 8
  %68 = icmp ne ptr %67, null
  call void @llvm.assume(i1 %68)
  %69 = load ptr, ptr %10, align 8
  %70 = load ptr, ptr %69, align 8
  store ptr %70, ptr %5, align 8
  br label %72

71:                                               ; preds = %52
  store ptr null, ptr %5, align 8
  br label %72

72:                                               ; preds = %71, %65
  %73 = load ptr, ptr %5, align 8
  %74 = icmp ne ptr %73, null
  %75 = zext i1 %74 to i8
  store i8 %75, ptr %17, align 1
  br label %76

76:                                               ; preds = %72, %43
  %77 = load i8, ptr %17, align 1
  %78 = trunc i8 %77 to i1
  %79 = xor i1 %78, true
  %80 = xor i1 %79, true
  %81 = xor i1 %80, true
  %82 = zext i1 %81 to i32
  %83 = sext i32 %82 to i64
  %84 = icmp ne i64 %83, 0
  br i1 %84, label %85, label %94

85:                                               ; preds = %76
  %86 = load ptr, ptr %15, align 8
  store ptr %86, ptr %4, align 8
  %87 = load ptr, ptr %4, align 8
  %88 = call ptr @zend_get_object_type_case(ptr noundef %87, i1 noundef zeroext false) #15
  %89 = load ptr, ptr %15, align 8
  %90 = getelementptr inbounds %struct._zend_class_entry, ptr %89, i32 0, i32 1
  %91 = load ptr, ptr %90, align 8
  %92 = getelementptr inbounds %struct._zend_string, ptr %91, i32 0, i32 3
  %93 = getelementptr inbounds [1 x i8], ptr %92, i64 0, i64 0
  call void (i32, ptr, ...) @zend_error_noreturn(i32 noundef 64, ptr noundef @.str.17, ptr noundef %88, ptr noundef %93) #14
  unreachable

94:                                               ; preds = %76
  %95 = load ptr, ptr %15, align 8
  %96 = getelementptr inbounds %struct._zend_class_entry, ptr %95, i32 0, i32 4
  %97 = load i32, ptr %96, align 4
  %98 = and i32 %97, 8
  %99 = icmp ne i32 %98, 0
  br i1 %99, label %100, label %106

100:                                              ; preds = %94
  %101 = load ptr, ptr %15, align 8
  %102 = load ptr, ptr %13, align 8
  %103 = getelementptr inbounds %struct._zval_struct, ptr %102, i32 0, i32 0
  %104 = load ptr, ptr %103, align 8
  call void @zend_observer_class_linked_notify(ptr noundef %101, ptr noundef %104)
  %105 = load ptr, ptr %15, align 8
  store ptr %105, ptr %11, align 8
  br label %147

106:                                              ; preds = %94
  %107 = load ptr, ptr %15, align 8
  %108 = load ptr, ptr %14, align 8
  %109 = load ptr, ptr %13, align 8
  %110 = getelementptr inbounds %struct._zval_struct, ptr %109, i32 0, i32 0
  %111 = load ptr, ptr %110, align 8
  %112 = call ptr @zend_do_link_class(ptr noundef %107, ptr noundef %108, ptr noundef %111)
  store ptr %112, ptr %15, align 8
  %113 = load ptr, ptr %15, align 8
  %114 = icmp ne ptr %113, null
  br i1 %114, label %115, label %124

115:                                              ; preds = %106
  %116 = load ptr, ptr getelementptr inbounds (%struct._zend_executor_globals, ptr @executor_globals, i32 0, i32 50), align 8
  %117 = icmp ne ptr %116, null
  %118 = xor i1 %117, true
  call void @llvm.assume(i1 %118)
  %119 = load ptr, ptr %15, align 8
  %120 = load ptr, ptr %13, align 8
  %121 = getelementptr inbounds %struct._zval_struct, ptr %120, i32 0, i32 0
  %122 = load ptr, ptr %121, align 8
  call void @zend_observer_class_linked_notify(ptr noundef %119, ptr noundef %122)
  %123 = load ptr, ptr %15, align 8
  store ptr %123, ptr %11, align 8
  br label %147

124:                                              ; preds = %106
  %125 = load i8, ptr %16, align 1
  %126 = trunc i8 %125 to i1
  br i1 %126, label %140, label %127

127:                                              ; preds = %124
  %128 = load ptr, ptr getelementptr inbounds (%struct._zend_executor_globals, ptr @executor_globals, i32 0, i32 11), align 8
  %129 = load ptr, ptr %13, align 8
  %130 = getelementptr inbounds %struct._zval_struct, ptr %129, i32 0, i32 0
  %131 = load ptr, ptr %130, align 8
  %132 = call ptr @zend_hash_find(ptr noundef %128, ptr noundef %131)
  store ptr %132, ptr %18, align 8
  %133 = load ptr, ptr getelementptr inbounds (%struct._zend_executor_globals, ptr @executor_globals, i32 0, i32 11), align 8
  %134 = load ptr, ptr %18, align 8
  %135 = load ptr, ptr %13, align 8
  %136 = getelementptr inbounds %struct._zval_struct, ptr %135, i64 1
  %137 = getelementptr inbounds %struct._zval_struct, ptr %136, i32 0, i32 0
  %138 = load ptr, ptr %137, align 8
  %139 = call ptr @zend_hash_set_bucket_key(ptr noundef %133, ptr noundef %134, ptr noundef %138)
  br label %146

140:                                              ; preds = %124
  %141 = load ptr, ptr getelementptr inbounds (%struct._zend_executor_globals, ptr @executor_globals, i32 0, i32 11), align 8
  %142 = load ptr, ptr %13, align 8
  %143 = getelementptr inbounds %struct._zval_struct, ptr %142, i32 0, i32 0
  %144 = load ptr, ptr %143, align 8
  %145 = call i32 @zend_hash_del(ptr noundef %141, ptr noundef %144)
  br label %146

146:                                              ; preds = %140, %127
  store ptr null, ptr %11, align 8
  br label %147

147:                                              ; preds = %146, %115, %100
  %148 = load ptr, ptr %11, align 8
  ret ptr %148
}