; Function Attrs: nounwind uwtable
define ptr @zend_bind_class_in_slot(ptr noundef %0, ptr nocapture noundef readonly %1, ptr noundef %2) local_unnamed_addr #0 {
  %4 = alloca %struct._zval_struct, align 8
  %5 = load ptr, ptr %0, align 8
  %6 = getelementptr inbounds i8, ptr %5, i64 28
  %7 = load i32, ptr %6, align 4
  %8 = and i32 %7, 1024
  %9 = icmp eq i32 %8, 0
  %10 = load i32, ptr getelementptr inbounds (%struct._zend_compiler_globals, ptr @compiler_globals, i64 0, i32 21), align 4
  %11 = and i32 %10, 32768
  %.not = icmp ne i32 %11, 0
  %.not39 = select i1 %9, i1 true, i1 %.not
  %12 = load ptr, ptr getelementptr inbounds (%struct._zend_executor_globals, ptr @executor_globals, i64 0, i32 11), align 8
  %13 = load ptr, ptr %1, align 8
  br i1 %.not39, label %14, label %16

14:                                               ; preds = %3
  %15 = tail call ptr @zend_hash_set_bucket_key(ptr noundef %12, ptr noundef nonnull %0, ptr noundef %13) #30
  %.not46 = icmp eq ptr %15, null
  br i1 %.not46, label %19, label %24

16:                                               ; preds = %3
  store ptr %5, ptr %4, align 8
  %17 = getelementptr inbounds i8, ptr %4, i64 8
  store i32 13, ptr %17, align 8
  %18 = call ptr @zend_hash_add(ptr noundef %12, ptr noundef %13, ptr noundef nonnull %4) #30
  %.not40.not = icmp eq ptr %18, null
  br i1 %.not40.not, label %19, label %24

19:                                               ; preds = %14, %16
  %20 = call ptr @zend_get_object_type_case(ptr noundef nonnull %5, i1 noundef zeroext false) #30
  %21 = getelementptr inbounds i8, ptr %5, i64 8
  %22 = load ptr, ptr %21, align 8
  %23 = getelementptr inbounds i8, ptr %22, i64 24
  call void (i32, ptr, ...) @zend_error_noreturn(i32 noundef 64, ptr noundef nonnull @.str.17, ptr noundef %20, ptr noundef nonnull %23) #31
  unreachable

24:                                               ; preds = %14, %16
  %25 = load i32, ptr %6, align 4
  %26 = and i32 %25, 8
  %.not41 = icmp eq i32 %26, 0
  br i1 %.not41, label %32, label %27

27:                                               ; preds = %24
  %28 = load i8, ptr @zend_observer_class_linked_observed, align 1
  %29 = and i8 %28, 1
  %.not.i = icmp eq i8 %29, 0
  br i1 %.not.i, label %zend_observer_class_linked_notify.exit, label %30

30:                                               ; preds = %27
  %31 = load ptr, ptr %1, align 8
  call void @_zend_observer_class_linked_notify(ptr noundef nonnull %5, ptr noundef %31) #30
  br label %zend_observer_class_linked_notify.exit

32:                                               ; preds = %24
  %33 = load ptr, ptr %1, align 8
  %34 = call ptr @zend_do_link_class(ptr noundef nonnull %5, ptr noundef %2, ptr noundef %33) #30
  %.not42 = icmp eq ptr %34, null
  br i1 %.not42, label %41, label %35

35:                                               ; preds = %32
  %36 = load ptr, ptr getelementptr inbounds (%struct._zend_executor_globals, ptr @executor_globals, i64 0, i32 50), align 8
  %.not43 = icmp eq ptr %36, null
  call void @llvm.assume(i1 %.not43)
  %37 = load i8, ptr @zend_observer_class_linked_observed, align 1
  %38 = and i8 %37, 1
  %.not.i44 = icmp eq i8 %38, 0
  br i1 %.not.i44, label %zend_observer_class_linked_notify.exit, label %39

39:                                               ; preds = %35
  %40 = load ptr, ptr %1, align 8
  call void @_zend_observer_class_linked_notify(ptr noundef nonnull %34, ptr noundef %40) #30
  br label %zend_observer_class_linked_notify.exit

41:                                               ; preds = %32
  %42 = load ptr, ptr getelementptr inbounds (%struct._zend_executor_globals, ptr @executor_globals, i64 0, i32 11), align 8
  %43 = load ptr, ptr %1, align 8
  br i1 %.not39, label %44, label %50

44:                                               ; preds = %41
  %45 = call ptr @zend_hash_find(ptr noundef %42, ptr noundef %43) #30
  %46 = load ptr, ptr getelementptr inbounds (%struct._zend_executor_globals, ptr @executor_globals, i64 0, i32 11), align 8
  %47 = getelementptr inbounds i8, ptr %1, i64 16
  %48 = load ptr, ptr %47, align 8
  %49 = call ptr @zend_hash_set_bucket_key(ptr noundef %46, ptr noundef %45, ptr noundef %48) #30
  br label %zend_observer_class_linked_notify.exit

50:                                               ; preds = %41
  %51 = call i32 @zend_hash_del(ptr noundef %42, ptr noundef %43) #30
  br label %zend_observer_class_linked_notify.exit

zend_observer_class_linked_notify.exit:           ; preds = %39, %35, %30, %27, %44, %50
  %.035 = phi ptr [ null, %50 ], [ null, %44 ], [ %5, %27 ], [ %5, %30 ], [ %34, %35 ], [ %34, %39 ]
  ret ptr %.035
}